; Function Attrs: nounwind uwtable
define dso_local range(i32 0, 5) i32 @get_call_result_type(ptr noundef readonly captures(none) %0, ptr noundef captures(address_is_null) %1, ptr noundef captures(address_is_null) %2) local_unnamed_addr #0 {
  %4 = load ptr, ptr %0, align 8
  %5 = getelementptr inbounds nuw i8, ptr %4, i64 8
  %6 = load i32, ptr %5, align 8
  %7 = getelementptr inbounds nuw i8, ptr %4, i64 40
  %8 = load ptr, ptr %7, align 8
  %9 = getelementptr inbounds nuw i8, ptr %0, i64 16
  %10 = load ptr, ptr %9, align 8
  %11 = tail call fastcc i32 @internal_get_result_type(i32 noundef %6, ptr noundef %8, ptr noundef %10, ptr noundef %1, ptr noundef %2)
  ret i32 %11
}